Certificate:
    Data:
        Version: 1 (0x0)
        Serial Number: 1 (0x1)
        Signature Algorithm: sha256WithRSAEncryption
        Issuer: CN=ca
        Validity
            Not Before: Dec  2 09:56:43 2024 GMT
            Not After : Dec  2 09:56:43 2025 GMT
        Subject: CN=jorge
        Subject Public Key Info:
            Public Key Algorithm: rsaEncryption
                Public-Key: (2048 bit)
                Modulus:
                    00:c9:db:b2:f3:6b:67:4c:85:c2:42:c8:0c:c8:3d:
                    7a:e8:3f:59:67:6f:2d:a4:53:b4:e4:d5:2b:64:98:
                    a6:d2:6c:62:0c:0d:bb:ec:f4:0f:5e:fd:3f:bd:db:
                    21:23:9a:73:43:24:f5:20:56:3d:b3:94:1b:eb:86:
                    cf:80:17:dc:e8:e2:48:64:6a:bc:94:46:3e:17:fb:
                    6c:77:ba:fe:e1:32:a7:58:b5:54:ed:d7:0d:71:76:
                    2b:b5:df:86:ce:e6:ea:3a:aa:99:15:19:b8:27:73:
                    41:e8:cf:c2:f1:b5:d5:7b:c4:e6:26:92:fb:f7:59:
                    24:9a:c4:c0:1e:46:44:39:ed:b6:ed:a6:c8:67:b9:
                    9a:50:7b:b3:86:90:bd:cd:b2:03:72:1d:50:dc:74:
                    2e:7a:d9:52:8c:de:a1:0b:75:9a:b2:3c:a5:e3:80:
                    c1:3a:b4:c2:c7:ba:3d:62:1f:4a:19:b5:0b:24:00:
                    16:9e:04:b9:2e:e0:26:e3:6d:f5:f5:64:84:50:79:
                    e3:e5:aa:7f:ab:18:ee:24:4e:52:c6:b1:78:7b:43:
                    6c:56:15:b1:cb:34:b8:14:5c:8d:6a:f0:23:79:bd:
                    c9:21:21:69:24:10:42:82:53:a5:c7:a9:d0:40:c2:
                    2b:fd:b6:ae:83:1d:5d:9b:e9:b9:47:37:23:27:ac:
                    83:1f
                Exponent: 65537 (0x10001)
    Signature Algorithm: sha256WithRSAEncryption
    Signature Value:
        31:e8:12:69:f8:f3:99:03:f1:d8:64:d2:47:c2:58:2c:95:85:
        f1:6c:12:b7:b5:5d:96:ab:0e:e8:34:b1:ea:41:b4:d2:80:ea:
        ec:7b:05:03:c1:a7:ca:ed:6a:ed:ae:29:2e:83:b3:22:5e:d8:
        df:71:b7:c5:28:ca:2a:df:c8:6b:af:d1:67:ba:44:9e:7d:f6:
        72:fa:14:22:bb:19:a5:32:32:74:10:e3:5d:61:9d:e8:6e:15:
        9e:24:a4:e6:32:a8:18:f5:05:1e:90:e5:1d:0f:a4:f1:b8:3b:
        5f:e2:90:d8:b9:8f:fd:d9:35:41:d5:37:6e:ec:d8:4e:f2:32:
        6e:7c:8f:c6:e9:b3:f9:96:54:cc:9a:0c:16:39:70:d5:2b:79:
        cc:7f:2e:e3:85:64:e8:0d:f7:53:13:07:9b:74:46:57:96:d5:
        11:9b:09:ca:8d:28:54:1c:ef:91:86:e9:ce:f6:66:99:80:e7:
        ba:9c:69:3f:0a:a6:37:e2:58:d6:5a:74:54:c4:e9:78:8f:86:
        09:f5:76:e7:e6:5d:89:c3:28:c0:6d:8b:ad:46:7f:89:d8:9e:
        4c:dc:b0:a7:18:94:ab:79:6c:c6:d9:58:4f:df:27:4f:7a:98:
        cb:fa:09:71:79:72:8d:74:e3:90:5c:92:c4:8a:64:8f:03:f8:
        7f:d3:6e:33
-----BEGIN CERTIFICATE-----
MIICkTCCAXkCAQEwDQYJKoZIhvcNAQELBQAwDTELMAkGA1UEAwwCY2EwHhcNMjQx
MjAyMDk1NjQzWhcNMjUxMjAyMDk1NjQzWjAQMQ4wDAYDVQQDDAVqb3JnZTCCASIw
DQYJKoZIhvcNAQEBBQADggEPADCCAQoCggEBAMnbsvNrZ0yFwkLIDMg9eug/WWdv
LaRTtOTVK2SYptJsYgwNu+z0D179P73bISOac0Mk9SBWPbOUG+uGz4AX3OjiSGRq
vJRGPhf7bHe6/uEyp1i1VO3XDXF2K7Xfhs7m6jqqmRUZuCdzQejPwvG11XvE5iaS
+/dZJJrEwB5GRDnttu2myGe5mlB7s4aQvc2yA3IdUNx0LnrZUozeoQt1mrI8peOA
wTq0wse6PWIfShm1CyQAFp4EuS7gJuNt9fVkhFB54+Wqf6sY7iROUsaxeHtDbFYV
scs0uBRcjWrwI3m9ySEhaSQQQoJTpcep0EDCK/22roMdXZvpuUc3Iyesgx8CAwEA
ATANBgkqhkiG9w0BAQsFAAOCAQEAMegSafjzmQPx2GTSR8JYLJWF8WwSt7VdlqsO
6DSx6kG00oDq7HsFA8Gnyu1q7a4pLoOzIl7Y33G3xSjKKt/Ia6/RZ7pEnn32cvoU
IrsZpTIydBDjXWGd6G4VniSk5jKoGPUFHpDlHQ+k8bg7X+KQ2LmP/dk1QdU3buzY
TvIybnyPxumz+ZZUzJoMFjlw1St5zH8u44Vk6A33UxMHm3RGV5bVEZsJyo0oVBzv
kYbpzvZmmYDnupxpPwqmN+JY1lp0VMTpeI+GCfV25+ZdicMowG2LrUZ/idieTNyw
pxiUq3lsxtlYT98nT3qYy/oJcXlyjXTjkFySxIpkjwP4f9NuMw==
-----END CERTIFICATE-----
