Certificate:
    Data:
        Version: 1 (0x0)
        Serial Number: 1 (0x1)
        Signature Algorithm: sha256WithRSAEncryption
        Issuer: CN=ca
        Validity
            Not Before: Dec  2 10:01:00 2024 GMT
            Not After : Dec  3 18:12:00 2024 GMT
        Subject: CN=jorge
        Subject Public Key Info:
            Public Key Algorithm: rsaEncryption
                Public-Key: (2048 bit)
                Modulus:
                    00:97:bb:a3:34:3f:bb:ca:b1:a9:be:76:c9:38:a9:
                    23:32:cb:42:d5:19:cc:6e:6e:3e:df:b9:b8:b0:a6:
                    07:4e:af:01:33:78:ff:0a:d4:42:36:5c:c5:fb:7a:
                    4b:ed:8c:7a:08:eb:3c:f8:d4:be:9e:b6:73:94:a7:
                    20:4c:17:4c:7d:d2:65:13:99:b7:10:7a:71:1c:89:
                    c5:3c:e4:80:8b:1d:44:50:ea:89:01:c3:ef:ca:df:
                    4c:ff:f9:cf:22:e7:60:64:50:21:c3:2e:b9:2d:2f:
                    81:06:f4:e2:33:2c:1e:f8:35:be:76:be:ca:1c:9c:
                    8a:eb:82:42:d2:de:37:d2:be:2b:3e:49:47:00:be:
                    6a:b1:23:f9:40:3e:e2:3b:66:f8:4d:1e:34:dd:a3:
                    ec:44:51:76:7a:e4:6f:c3:d2:53:a9:50:fa:1f:00:
                    19:f5:79:b1:d5:ca:1c:c7:cf:34:69:08:8e:7b:23:
                    de:fd:86:db:ab:59:c7:48:0a:15:7f:e0:2c:a2:ad:
                    4f:79:41:8e:19:a0:dc:a9:e3:a6:87:be:38:0c:06:
                    42:8f:23:eb:c9:e2:e9:70:3f:2f:c9:89:c5:6d:3d:
                    07:00:22:6e:74:99:92:3f:d5:09:cf:8e:35:18:db:
                    ea:b6:f3:61:26:43:3c:6b:11:31:90:05:2b:2c:cf:
                    89:e7
                Exponent: 65537 (0x10001)
    Signature Algorithm: sha256WithRSAEncryption
    Signature Value:
        86:f8:5b:b3:ce:a0:8a:79:76:27:30:61:3e:5e:c8:4d:ac:90:
        3c:23:af:58:da:0a:f0:a0:5f:0e:27:c4:25:a2:05:9f:8f:1b:
        08:e0:65:6d:61:b1:9f:6c:21:19:82:ec:d4:29:d5:ee:8b:d1:
        50:79:62:12:e8:d6:62:00:25:3d:07:b5:1a:18:15:2c:3c:12:
        19:74:b6:28:76:b0:13:d8:cb:72:42:e6:8f:f1:59:7d:6c:5a:
        92:0d:e1:40:44:07:73:99:88:2b:33:23:af:c5:7e:52:5b:05:
        51:29:93:ce:08:f3:57:93:e2:f9:4f:d0:9a:27:6d:08:78:68:
        9c:52:bc:49:41:17:75:9c:79:c6:5f:f5:0b:61:a4:c3:79:7f:
        78:e3:0a:04:eb:ce:dd:6a:26:02:da:b9:f2:b5:e4:c5:95:b2:
        29:b5:f9:bb:0e:91:5f:8a:12:a5:3b:78:65:60:4b:bb:ce:bf:
        69:0d:98:36:74:d1:6b:41:fb:85:b3:c9:b6:48:e1:6e:fa:3e:
        a6:86:07:50:0d:bb:ea:0b:16:c8:14:b3:28:a5:bd:40:b6:1e:
        d3:79:8e:bc:8b:22:e1:80:24:4c:50:60:47:57:18:43:8d:79:
        a7:b0:b0:39:5e:7f:cf:0b:4b:54:59:74:31:6c:0e:8f:6a:29:
        74:a6:92:60
-----BEGIN CERTIFICATE-----
MIICkTCCAXkCAQEwDQYJKoZIhvcNAQELBQAwDTELMAkGA1UEAwwCY2EwHhcNMjQx
MjAyMTAwMTAwWhcNMjQxMjAzMTgxMjAwWjAQMQ4wDAYDVQQDDAVqb3JnZTCCASIw
DQYJKoZIhvcNAQEBBQADggEPADCCAQoCggEBAJe7ozQ/u8qxqb52yTipIzLLQtUZ
zG5uPt+5uLCmB06vATN4/wrUQjZcxft6S+2MegjrPPjUvp62c5SnIEwXTH3SZROZ
txB6cRyJxTzkgIsdRFDqiQHD78rfTP/5zyLnYGRQIcMuuS0vgQb04jMsHvg1vna+
yhyciuuCQtLeN9K+Kz5JRwC+arEj+UA+4jtm+E0eNN2j7ERRdnrkb8PSU6lQ+h8A
GfV5sdXKHMfPNGkIjnsj3v2G26tZx0gKFX/gLKKtT3lBjhmg3Knjpoe+OAwGQo8j
68ni6XA/L8mJxW09BwAibnSZkj/VCc+ONRjb6rbzYSZDPGsRMZAFKyzPiecCAwEA
ATANBgkqhkiG9w0BAQsFAAOCAQEAhvhbs86ginl2JzBhPl7ITayQPCOvWNoK8KBf
DifEJaIFn48bCOBlbWGxn2whGYLs1CnV7ovRUHliEujWYgAlPQe1GhgVLDwSGXS2
KHawE9jLckLmj/FZfWxakg3hQEQHc5mIKzMjr8V+UlsFUSmTzgjzV5Pi+U/Qmidt
CHhonFK8SUEXdZx5xl/1C2Gkw3l/eOMKBOvO3WomAtq58rXkxZWyKbX5uw6RX4oS
pTt4ZWBLu86/aQ2YNnTRa0H7hbPJtkjhbvo+poYHUA276gsWyBSzKKW9QLYe03mO
vIsi4YAkTFBgR1cYQ415p7CwOV5/zwtLVFl0MWwOj2opdKaSYA==
-----END CERTIFICATE-----
