Certificate:
    Data:
        Version: 1 (0x0)
        Serial Number: 2 (0x2)
        Signature Algorithm: sha256WithRSAEncryption
        Issuer: CN=ca
        Validity
            Not Before: Dec  3 17:12:59 2024 GMT
            Not After : Dec  3 17:12:59 2025 GMT
        Subject: CN=jorge
        Subject Public Key Info:
            Public Key Algorithm: rsaEncryption
                Public-Key: (2048 bit)
                Modulus:
                    00:97:bb:a3:34:3f:bb:ca:b1:a9:be:76:c9:38:a9:
                    23:32:cb:42:d5:19:cc:6e:6e:3e:df:b9:b8:b0:a6:
                    07:4e:af:01:33:78:ff:0a:d4:42:36:5c:c5:fb:7a:
                    4b:ed:8c:7a:08:eb:3c:f8:d4:be:9e:b6:73:94:a7:
                    20:4c:17:4c:7d:d2:65:13:99:b7:10:7a:71:1c:89:
                    c5:3c:e4:80:8b:1d:44:50:ea:89:01:c3:ef:ca:df:
                    4c:ff:f9:cf:22:e7:60:64:50:21:c3:2e:b9:2d:2f:
                    81:06:f4:e2:33:2c:1e:f8:35:be:76:be:ca:1c:9c:
                    8a:eb:82:42:d2:de:37:d2:be:2b:3e:49:47:00:be:
                    6a:b1:23:f9:40:3e:e2:3b:66:f8:4d:1e:34:dd:a3:
                    ec:44:51:76:7a:e4:6f:c3:d2:53:a9:50:fa:1f:00:
                    19:f5:79:b1:d5:ca:1c:c7:cf:34:69:08:8e:7b:23:
                    de:fd:86:db:ab:59:c7:48:0a:15:7f:e0:2c:a2:ad:
                    4f:79:41:8e:19:a0:dc:a9:e3:a6:87:be:38:0c:06:
                    42:8f:23:eb:c9:e2:e9:70:3f:2f:c9:89:c5:6d:3d:
                    07:00:22:6e:74:99:92:3f:d5:09:cf:8e:35:18:db:
                    ea:b6:f3:61:26:43:3c:6b:11:31:90:05:2b:2c:cf:
                    89:e7
                Exponent: 65537 (0x10001)
    Signature Algorithm: sha256WithRSAEncryption
    Signature Value:
        8b:eb:ff:35:7e:17:e1:bf:0d:5f:a0:62:1a:77:7c:94:a4:25:
        bc:cd:04:b0:26:d4:42:9c:c8:e3:03:6d:c1:88:3f:4d:03:40:
        02:cd:d4:a2:0d:37:b1:fa:23:c6:9a:70:27:c9:0f:f9:e9:22:
        08:2b:bc:dc:bb:5b:b5:e6:8c:5d:98:f4:69:c5:b5:59:fd:f5:
        6e:42:72:8c:dc:ec:19:98:07:cc:f0:3c:93:f3:98:18:db:da:
        ed:c1:16:7d:87:31:46:4f:dd:d2:d5:e6:2c:e4:cf:e7:c5:59:
        96:7b:3b:b6:75:bd:57:0f:03:34:e9:88:5b:ae:bd:ef:40:26:
        fb:43:68:e6:c9:71:b4:6f:69:7c:6e:22:16:35:76:d6:7c:22:
        71:5e:87:da:14:bf:4b:97:9c:f9:e7:92:69:dc:0b:db:2c:a6:
        52:3a:9e:59:46:e7:c7:ac:95:d3:fb:6b:11:b3:b8:5d:4c:35:
        6f:40:fa:c7:77:63:4d:1a:a5:7a:e1:06:60:1d:7d:0b:d2:6b:
        f3:cf:b1:a1:32:14:4b:22:c7:b9:96:bb:6f:c8:b1:6b:fe:a5:
        03:d6:96:af:e0:d4:c8:28:3d:9d:85:fa:fb:09:df:42:c4:4f:
        e5:96:e6:ac:71:70:31:26:d9:55:54:b2:e9:3f:16:e1:a2:de:
        e2:af:e4:74
-----BEGIN CERTIFICATE-----
MIICkTCCAXkCAQIwDQYJKoZIhvcNAQELBQAwDTELMAkGA1UEAwwCY2EwHhcNMjQx
MjAzMTcxMjU5WhcNMjUxMjAzMTcxMjU5WjAQMQ4wDAYDVQQDDAVqb3JnZTCCASIw
DQYJKoZIhvcNAQEBBQADggEPADCCAQoCggEBAJe7ozQ/u8qxqb52yTipIzLLQtUZ
zG5uPt+5uLCmB06vATN4/wrUQjZcxft6S+2MegjrPPjUvp62c5SnIEwXTH3SZROZ
txB6cRyJxTzkgIsdRFDqiQHD78rfTP/5zyLnYGRQIcMuuS0vgQb04jMsHvg1vna+
yhyciuuCQtLeN9K+Kz5JRwC+arEj+UA+4jtm+E0eNN2j7ERRdnrkb8PSU6lQ+h8A
GfV5sdXKHMfPNGkIjnsj3v2G26tZx0gKFX/gLKKtT3lBjhmg3Knjpoe+OAwGQo8j
68ni6XA/L8mJxW09BwAibnSZkj/VCc+ONRjb6rbzYSZDPGsRMZAFKyzPiecCAwEA
ATANBgkqhkiG9w0BAQsFAAOCAQEAi+v/NX4X4b8NX6BiGnd8lKQlvM0EsCbUQpzI
4wNtwYg/TQNAAs3Uog03sfojxppwJ8kP+ekiCCu83LtbteaMXZj0acW1Wf31bkJy
jNzsGZgHzPA8k/OYGNva7cEWfYcxRk/d0tXmLOTP58VZlns7tnW9Vw8DNOmIW669
70Am+0No5slxtG9pfG4iFjV21nwicV6H2hS/S5ec+eeSadwL2yymUjqeWUbnx6yV
0/trEbO4XUw1b0D6x3djTRqleuEGYB19C9Jr88+xoTIUSyLHuZa7b8ixa/6lA9aW
r+DUyCg9nYX6+wnfQsRP5ZbmrHFwMSbZVVSy6T8W4aLe4q/kdA==
-----END CERTIFICATE-----
