Certificate:
    Data:
        Version: 1 (0x0)
        Serial Number: 2 (0x2)
        Signature Algorithm: sha256WithRSAEncryption
        Issuer: CN=ca
        Validity
            Not Before: Dec  2 09:56:51 2024 GMT
            Not After : Dec  2 09:56:51 2025 GMT
        Subject: CN=mario
        Subject Public Key Info:
            Public Key Algorithm: rsaEncryption
                Public-Key: (2048 bit)
                Modulus:
                    00:c8:48:12:de:42:95:ae:ff:67:ba:09:14:12:29:
                    dd:f2:f3:26:54:09:b5:1b:fc:68:05:3b:72:88:f3:
                    e1:74:e2:cb:c4:52:e0:d4:c7:e3:a3:e4:55:db:9c:
                    c2:1e:9a:82:7c:a8:a9:1c:a0:c5:e3:e2:d7:75:73:
                    7a:64:02:93:f3:ee:14:d3:2b:a3:c4:b5:0a:d0:4c:
                    73:3e:70:9c:8e:a9:0a:d3:15:53:dd:d7:ef:3d:23:
                    2e:4d:ae:37:87:2f:18:3d:b3:6b:ea:c9:fa:fd:e6:
                    26:81:fd:38:a1:e8:9e:50:38:2e:c0:cb:b5:1d:bc:
                    5c:02:f6:93:4b:a3:f1:1b:6c:67:74:51:0a:9d:e3:
                    45:32:60:1a:d2:f1:90:e9:04:0f:48:63:be:7c:18:
                    d7:42:39:5b:8a:be:a7:06:0c:01:8e:59:52:4b:4f:
                    ed:64:b7:40:95:73:94:35:17:5e:96:d0:05:2e:1c:
                    da:27:02:74:52:d2:bc:e6:5e:b6:ac:80:18:e3:42:
                    c9:b3:70:28:e5:1a:0b:ba:6f:18:da:d4:0f:12:c9:
                    53:56:38:58:33:15:f5:cd:e7:a1:e0:67:6f:1d:3b:
                    d5:92:64:f5:23:c1:4f:a8:09:30:5e:dc:c2:a9:5f:
                    49:b7:f4:26:59:85:fa:48:9a:c4:d1:85:62:29:6e:
                    73:f9
                Exponent: 65537 (0x10001)
    Signature Algorithm: sha256WithRSAEncryption
    Signature Value:
        2c:81:95:df:93:46:90:9b:fc:fe:3c:e4:d6:ec:4d:16:f8:ee:
        07:ca:9f:d1:e6:35:81:47:78:30:ea:bb:0d:64:4c:c7:55:37:
        11:25:a0:ee:30:26:19:81:c1:a0:24:df:35:50:87:b3:f6:7a:
        f2:ab:7c:98:1c:97:d5:3c:6a:ea:c5:a0:f1:9b:87:ef:e9:60:
        81:f2:ed:e7:a7:6d:02:8f:52:58:23:66:22:65:b6:3e:c5:eb:
        9c:6e:2c:c4:ce:69:81:85:39:80:a2:c9:da:01:f8:91:92:16:
        a6:ab:7d:ad:99:78:6b:89:81:7f:a1:20:24:aa:40:63:77:b5:
        6b:96:57:24:fe:ff:12:dc:82:aa:ed:38:f5:76:8e:84:be:d7:
        58:93:22:a2:5e:b3:2c:50:cf:ba:9e:ff:9c:17:d5:a0:48:24:
        3f:39:61:93:99:da:54:95:05:94:72:eb:f9:8f:9e:a9:77:27:
        25:78:7a:3d:44:b4:44:e3:4d:d3:50:02:2b:ee:b4:a2:8b:ea:
        55:70:b5:9f:42:85:f7:74:b3:34:d8:c9:81:ec:96:0b:df:58:
        30:f8:43:4f:14:e9:e0:21:4b:ea:e9:ca:37:97:85:b7:a2:a4:
        e9:ee:68:0f:bc:0d:ae:02:b7:7d:4a:53:e7:08:61:85:12:44:
        4d:5b:2b:cb
-----BEGIN CERTIFICATE-----
MIICkTCCAXkCAQIwDQYJKoZIhvcNAQELBQAwDTELMAkGA1UEAwwCY2EwHhcNMjQx
MjAyMDk1NjUxWhcNMjUxMjAyMDk1NjUxWjAQMQ4wDAYDVQQDDAVtYXJpbzCCASIw
DQYJKoZIhvcNAQEBBQADggEPADCCAQoCggEBAMhIEt5Cla7/Z7oJFBIp3fLzJlQJ
tRv8aAU7cojz4XTiy8RS4NTH46PkVducwh6agnyoqRygxePi13VzemQCk/PuFNMr
o8S1CtBMcz5wnI6pCtMVU93X7z0jLk2uN4cvGD2za+rJ+v3mJoH9OKHonlA4LsDL
tR28XAL2k0uj8RtsZ3RRCp3jRTJgGtLxkOkED0hjvnwY10I5W4q+pwYMAY5ZUktP
7WS3QJVzlDUXXpbQBS4c2icCdFLSvOZetqyAGONCybNwKOUaC7pvGNrUDxLJU1Y4
WDMV9c3noeBnbx071ZJk9SPBT6gJMF7cwqlfSbf0JlmF+kiaxNGFYiluc/kCAwEA
ATANBgkqhkiG9w0BAQsFAAOCAQEALIGV35NGkJv8/jzk1uxNFvjuB8qf0eY1gUd4
MOq7DWRMx1U3ESWg7jAmGYHBoCTfNVCHs/Z68qt8mByX1Txq6sWg8ZuH7+lggfLt
56dtAo9SWCNmImW2PsXrnG4sxM5pgYU5gKLJ2gH4kZIWpqt9rZl4a4mBf6EgJKpA
Y3e1a5ZXJP7/EtyCqu049XaOhL7XWJMiol6zLFDPup7/nBfVoEgkPzlhk5naVJUF
lHLr+Y+eqXcnJXh6PUS0RONN01ACK+60oovqVXC1n0KF93SzNNjJgeyWC99YMPhD
TxTp4CFL6unKN5eFt6Kk6e5oD7wNrgK3fUpT5whhhRJETVsryw==
-----END CERTIFICATE-----
