Certificate:
    Data:
        Version: 1 (0x0)
        Serial Number: 3 (0x3)
        Signature Algorithm: sha256WithRSAEncryption
        Issuer: CN=ca
        Validity
            Not Before: Dec  2 09:59:53 2024 GMT
            Not After : Dec  2 09:59:53 2025 GMT
        Subject: CN=prueba1
        Subject Public Key Info:
            Public Key Algorithm: rsaEncryption
                Public-Key: (2048 bit)
                Modulus:
                    00:cc:1d:cf:63:8a:e1:db:74:43:95:8c:41:10:a6:
                    f8:1f:02:13:00:2e:37:6e:90:5b:d6:37:03:d2:ad:
                    25:84:2f:00:5a:15:92:60:d6:90:7e:92:92:c8:cf:
                    8e:41:4f:8f:c8:f1:44:79:f4:01:99:56:fb:f4:b0:
                    37:66:37:e5:1f:5d:c3:6e:51:9f:c8:7f:94:56:9a:
                    be:9d:ab:f6:00:67:74:c5:76:57:ba:10:1a:9e:e1:
                    ff:5a:33:e6:3a:de:41:7c:89:73:5e:e2:43:cf:c7:
                    6d:89:00:ed:06:38:90:a2:fd:df:f4:6d:ba:a4:17:
                    1a:86:65:78:44:62:61:b4:8c:43:02:99:97:96:4b:
                    11:1f:ca:53:3f:73:8e:ae:bc:e9:93:b0:f6:36:19:
                    55:2e:ac:6a:38:52:b6:ff:34:c9:af:3b:d5:fb:5d:
                    9e:a3:6e:5b:4c:b9:b8:2e:df:6d:46:9d:de:37:44:
                    e8:0e:cc:e4:a6:e5:57:cf:5d:f5:1f:3a:15:a7:4b:
                    cc:79:f6:64:56:8b:53:f7:b8:4a:9b:8c:f7:b0:9a:
                    c5:9f:c9:35:09:14:fa:4f:f4:54:24:86:6e:70:d2:
                    a4:2d:7d:bc:8e:2c:95:1a:75:70:93:e7:ae:b5:fb:
                    e7:6b:57:9b:cf:61:c3:1d:33:29:d1:50:69:b2:98:
                    0f:9d
                Exponent: 65537 (0x10001)
    Signature Algorithm: sha256WithRSAEncryption
    Signature Value:
        55:3c:bc:ac:3e:02:f6:01:ca:9f:a0:1c:92:90:71:72:c7:46:
        d2:ba:2c:17:01:3a:6b:b5:f1:3c:74:94:26:54:11:79:a2:f3:
        eb:44:b4:fc:e7:10:9f:b1:43:a0:46:8b:a3:a7:5e:c8:1d:92:
        4e:6b:16:22:27:82:f7:ad:2f:4b:a9:bd:b5:d3:18:14:bb:37:
        58:1a:2b:cb:b2:cf:b9:db:6f:b7:df:d3:83:32:67:ba:5c:d3:
        b4:9b:e8:bf:ee:e1:20:ae:8e:35:ab:1e:fd:12:4a:b8:e7:41:
        84:9b:97:61:9f:c3:5c:41:e6:08:96:9a:57:71:46:f2:f9:81:
        47:24:bd:0b:6c:4b:4f:50:f0:2d:77:cb:85:a9:06:9a:7d:ea:
        d0:0d:ba:3c:2e:5c:7b:00:3a:19:2b:10:a9:85:7b:82:92:9c:
        b6:eb:3a:8a:5b:c6:67:09:94:7a:9f:52:91:b7:35:3c:96:17:
        27:b0:12:6e:da:3b:bc:16:e3:45:c5:02:02:4d:e4:72:a5:b7:
        e0:52:e4:10:d7:bf:34:1c:ef:eb:9b:47:fa:aa:d2:15:f6:d4:
        fc:b8:e4:6a:fa:a6:0e:6e:00:24:3d:e4:e1:de:1d:25:31:8c:
        73:eb:b8:e4:2d:29:94:fc:75:d6:a9:2e:98:ff:64:15:64:3b:
        d7:2e:62:e5
-----BEGIN CERTIFICATE-----
MIICkzCCAXsCAQMwDQYJKoZIhvcNAQELBQAwDTELMAkGA1UEAwwCY2EwHhcNMjQx
MjAyMDk1OTUzWhcNMjUxMjAyMDk1OTUzWjASMRAwDgYDVQQDDAdwcnVlYmExMIIB
IjANBgkqhkiG9w0BAQEFAAOCAQ8AMIIBCgKCAQEAzB3PY4rh23RDlYxBEKb4HwIT
AC43bpBb1jcD0q0lhC8AWhWSYNaQfpKSyM+OQU+PyPFEefQBmVb79LA3ZjflH13D
blGfyH+UVpq+nav2AGd0xXZXuhAanuH/WjPmOt5BfIlzXuJDz8dtiQDtBjiQov3f
9G26pBcahmV4RGJhtIxDApmXlksRH8pTP3OOrrzpk7D2NhlVLqxqOFK2/zTJrzvV
+12eo25bTLm4Lt9tRp3eN0ToDszkpuVXz131HzoVp0vMefZkVotT97hKm4z3sJrF
n8k1CRT6T/RUJIZucNKkLX28jiyVGnVwk+eutfvna1ebz2HDHTMp0VBpspgPnQID
AQABMA0GCSqGSIb3DQEBCwUAA4IBAQBVPLysPgL2AcqfoBySkHFyx0bSuiwXATpr
tfE8dJQmVBF5ovPrRLT85xCfsUOgRoujp17IHZJOaxYiJ4L3rS9Lqb210xgUuzdY
GivLss+522+339ODMme6XNO0m+i/7uEgro41qx79Ekq450GEm5dhn8NcQeYIlppX
cUby+YFHJL0LbEtPUPAtd8uFqQaaferQDbo8Llx7ADoZKxCphXuCkpy26zqKW8Zn
CZR6n1KRtzU8lhcnsBJu2ju8FuNFxQICTeRypbfgUuQQ1780HO/rm0f6qtIV9tT8
uORq+qYObgAkPeTh3h0lMYxz67jkLSmU/HXWqS6Y/2QVZDvXLmLl
-----END CERTIFICATE-----
