Certificate:
    Data:
        Version: 1 (0x0)
        Serial Number: 3 (0x3)
        Signature Algorithm: sha256WithRSAEncryption
        Issuer: CN=ca
        Validity
            Not Before: Dec  3 17:14:37 2024 GMT
            Not After : Dec  3 17:14:37 2025 GMT
        Subject: CN=mario
        Subject Public Key Info:
            Public Key Algorithm: rsaEncryption
                Public-Key: (2048 bit)
                Modulus:
                    00:bf:b5:5b:3d:65:44:3c:67:1c:73:13:7d:07:91:
                    85:05:e9:50:8a:81:db:7b:22:c6:8a:bf:76:f3:43:
                    38:8c:07:e5:6a:c9:f0:89:c4:c1:e2:28:1a:72:f5:
                    e2:8f:64:e8:42:3e:8d:b3:0f:3e:e5:8c:8a:2e:e5:
                    55:c5:36:ea:9f:1c:d5:fa:13:74:f4:9a:57:a0:48:
                    b2:15:81:9a:1b:88:60:01:92:c6:c5:80:0a:80:72:
                    80:14:09:46:75:b0:cf:a6:95:8c:50:55:80:06:7e:
                    e4:10:45:49:4c:61:38:16:d2:a1:06:4d:e8:a0:21:
                    28:2d:2d:2c:4c:1d:35:54:b0:77:13:16:c5:b1:43:
                    12:7b:84:3d:25:b7:85:e4:43:5f:a2:90:55:75:09:
                    bf:e9:fb:54:70:3a:87:f1:df:6c:81:71:c6:d6:4f:
                    3e:77:1f:1e:7c:9b:6a:5e:cd:52:1f:f1:22:7c:67:
                    bb:3b:f3:4d:a5:19:1c:92:f3:76:80:0f:6d:6a:80:
                    0a:5a:00:df:6d:91:dc:f7:2f:7e:ef:6b:63:d6:f9:
                    6d:16:c3:39:07:ae:04:f6:3a:2a:0e:28:79:d0:cc:
                    ef:76:f8:cc:ca:d6:a6:cc:79:a9:95:a2:af:eb:6d:
                    21:ba:4d:1a:da:01:8e:19:aa:64:5a:d2:22:fb:f8:
                    83:b5
                Exponent: 65537 (0x10001)
    Signature Algorithm: sha256WithRSAEncryption
    Signature Value:
        5f:d1:9d:20:77:f6:0b:7c:4f:dc:e2:f4:c4:64:0b:16:de:f5:
        8c:cc:3f:5f:db:50:02:01:3f:8b:5c:4b:13:5e:4e:bf:6d:e6:
        8f:d9:7a:17:d2:8d:19:57:68:b0:98:1e:46:d6:53:a3:e8:97:
        a9:0e:67:15:68:6f:df:5c:00:7b:46:98:f0:35:64:47:55:14:
        a8:25:b5:4b:e5:a6:ff:83:90:ba:c6:5e:a5:a7:bf:6d:9e:b5:
        ba:b5:ec:5b:10:c6:5c:e4:98:a0:66:4a:e1:00:5a:3a:d9:c9:
        c6:c0:08:61:cc:6f:06:50:6f:b0:65:4f:64:e6:68:bd:dd:65:
        f2:8b:c8:c9:55:4a:0a:f8:5a:5c:8d:75:d9:cf:33:ec:6f:76:
        4c:c8:df:53:1c:9a:1c:31:2a:b4:3c:2a:05:5f:1c:ac:0e:a8:
        96:7c:55:fb:d5:2d:d4:c5:58:da:b3:0b:c9:55:1f:82:97:24:
        02:44:7a:5f:bb:bc:46:88:b2:df:b5:4f:3a:0e:d0:2d:7a:2c:
        22:da:d9:8e:44:3a:65:fa:0e:38:43:18:f1:99:7d:fc:13:da:
        6d:b7:21:e8:cd:23:7f:b2:38:bf:55:90:88:de:c0:87:66:d2:
        3f:00:13:a4:64:8a:ff:89:95:50:f9:39:8b:f3:f2:c4:47:ee:
        cf:2e:bb:1e
-----BEGIN CERTIFICATE-----
MIICkTCCAXkCAQMwDQYJKoZIhvcNAQELBQAwDTELMAkGA1UEAwwCY2EwHhcNMjQx
MjAzMTcxNDM3WhcNMjUxMjAzMTcxNDM3WjAQMQ4wDAYDVQQDDAVtYXJpbzCCASIw
DQYJKoZIhvcNAQEBBQADggEPADCCAQoCggEBAL+1Wz1lRDxnHHMTfQeRhQXpUIqB
23sixoq/dvNDOIwH5WrJ8InEweIoGnL14o9k6EI+jbMPPuWMii7lVcU26p8c1foT
dPSaV6BIshWBmhuIYAGSxsWACoBygBQJRnWwz6aVjFBVgAZ+5BBFSUxhOBbSoQZN
6KAhKC0tLEwdNVSwdxMWxbFDEnuEPSW3heRDX6KQVXUJv+n7VHA6h/HfbIFxxtZP
PncfHnybal7NUh/xInxnuzvzTaUZHJLzdoAPbWqACloA322R3Pcvfu9rY9b5bRbD
OQeuBPY6Kg4oedDM73b4zMrWpsx5qZWir+ttIbpNGtoBjhmqZFrSIvv4g7UCAwEA
ATANBgkqhkiG9w0BAQsFAAOCAQEAX9GdIHf2C3xP3OL0xGQLFt71jMw/X9tQAgE/
i1xLE15Ov23mj9l6F9KNGVdosJgeRtZTo+iXqQ5nFWhv31wAe0aY8DVkR1UUqCW1
S+Wm/4OQusZepae/bZ61urXsWxDGXOSYoGZK4QBaOtnJxsAIYcxvBlBvsGVPZOZo
vd1l8ovIyVVKCvhaXI112c8z7G92TMjfUxyaHDEqtDwqBV8crA6olnxV+9Ut1MVY
2rMLyVUfgpckAkR6X7u8Roiy37VPOg7QLXosItrZjkQ6ZfoOOEMY8Zl9/BPabbch
6M0jf7I4v1WQiN7Ah2bSPwATpGSK/4mVUPk5i/PyxEfuzy67Hg==
-----END CERTIFICATE-----
